; ModuleID = 'source-C-CXX/18/2846.c'
source_filename = "source-C-CXX/18/2846.c"
target datalayout = "e-m:e-p270:32:32-p271:32:32-p272:64:64-i64:64-f80:128-n8:16:32:64-S128"
target triple = "x86_64-pc-linux-gnu"

%struct._IO_FILE = type { i32, i8*, i8*, i8*, i8*, i8*, i8*, i8*, i8*, i8*, i8*, i8*, %struct._IO_marker*, %struct._IO_FILE*, i32, i32, i64, i16, i8, [1 x i8], i8*, i64, %struct._IO_codecvt*, %struct._IO_wide_data*, %struct._IO_FILE*, i8*, i64, i32, [20 x i8] }
%struct._IO_marker = type opaque
%struct._IO_codecvt = type opaque
%struct._IO_wide_data = type opaque

@.str = private unnamed_addr constant [3 x i8] c"%s\00", align 1
@str = dso_local global [100 x [100 x i8]] zeroinitializer, align 16
@s = dso_local global [100 x i8] zeroinitializer, align 16
@t = dso_local global [100 x i8] zeroinitializer, align 16
@.str.1 = private unnamed_addr constant [4 x i8] c"%s \00", align 1
@c = dso_local local_unnamed_addr global i8 0, align 1
@stdin = external local_unnamed_addr global %struct._IO_FILE*, align 8

; Function Attrs: nofree nounwind sspstrong uwtable
define dso_local i32 @main() local_unnamed_addr #0 {
  br label %1

1:                                                ; preds = %1, %0
  %2 = phi i64 [ %3, %1 ], [ 0, %0 ]
  %3 = add nuw i64 %2, 1
  %4 = getelementptr inbounds [100 x [100 x i8]], [100 x [100 x i8]]* @str, i64 0, i64 %2, i64 0
  %5 = tail call i32 (i8*, ...) @__isoc99_scanf(i8* getelementptr inbounds ([3 x i8], [3 x i8]* @.str, i64 0, i64 0), i8* nonnull %4)
  %6 = load %struct._IO_FILE*, %struct._IO_FILE** @stdin, align 8, !tbaa !5
  %7 = tail call i32 @getc(%struct._IO_FILE* %6) #5
  %8 = icmp eq i32 %7, 10
  br i1 %8, label %9, label %1

9:                                                ; preds = %1
  %10 = trunc i64 %2 to i32
  %11 = tail call i32 (i8*, ...) @__isoc99_scanf(i8* getelementptr inbounds ([3 x i8], [3 x i8]* @.str, i64 0, i64 0), i8* getelementptr inbounds ([100 x i8], [100 x i8]* @s, i64 0, i64 0))
  %12 = tail call i32 (i8*, ...) @__isoc99_scanf(i8* getelementptr inbounds ([3 x i8], [3 x i8]* @.str, i64 0, i64 0), i8* getelementptr inbounds ([100 x i8], [100 x i8]* @t, i64 0, i64 0))
  %13 = add i64 %2, 1
  %14 = and i64 %13, 4294967295
  br label %19

15:                                               ; preds = %26
  %16 = icmp eq i32 %10, 0
  br i1 %16, label %29, label %17

17:                                               ; preds = %15
  %18 = and i64 %2, 4294967295
  br label %31

19:                                               ; preds = %9, %26
  %20 = phi i64 [ 0, %9 ], [ %27, %26 ]
  %21 = getelementptr inbounds [100 x [100 x i8]], [100 x [100 x i8]]* @str, i64 0, i64 %20, i64 0
  %22 = tail call i32 @strcmp(i8* noundef nonnull %21, i8* noundef nonnull dereferenceable(1) getelementptr inbounds ([100 x i8], [100 x i8]* @s, i64 0, i64 0)) #6
  %23 = icmp eq i32 %22, 0
  br i1 %23, label %24, label %26

24:                                               ; preds = %19
  %25 = tail call i8* @strcpy(i8* noundef nonnull %21, i8* noundef nonnull dereferenceable(1) getelementptr inbounds ([100 x i8], [100 x i8]* @t, i64 0, i64 0)) #5
  br label %26

26:                                               ; preds = %19, %24
  %27 = add nuw nsw i64 %20, 1
  %28 = icmp eq i64 %27, %14
  br i1 %28, label %15, label %19, !llvm.loop !9

29:                                               ; preds = %31, %15
  %30 = tail call i32 @puts(i8* nonnull %4)
  ret i32 0

31:                                               ; preds = %17, %31
  %32 = phi i64 [ 0, %17 ], [ %35, %31 ]
  %33 = getelementptr inbounds [100 x [100 x i8]], [100 x [100 x i8]]* @str, i64 0, i64 %32, i64 0
  %34 = tail call i32 (i8*, ...) @printf(i8* nonnull dereferenceable(1) getelementptr inbounds ([4 x i8], [4 x i8]* @.str.1, i64 0, i64 0), i8* nonnull %33)
  %35 = add nuw nsw i64 %32, 1
  %36 = icmp eq i64 %35, %18
  br i1 %36, label %29, label %31, !llvm.loop !11
}

; Function Attrs: nofree nounwind
declare noundef i32 @__isoc99_scanf(i8* nocapture noundef readonly, ...) local_unnamed_addr #1

; Function Attrs: argmemonly mustprogress nofree nounwind readonly willreturn
declare i32 @strcmp(i8* nocapture, i8* nocapture) local_unnamed_addr #2

; Function Attrs: argmemonly mustprogress nofree nounwind willreturn
declare i8* @strcpy(i8* noalias returned writeonly, i8* noalias nocapture readonly) local_unnamed_addr #3

; Function Attrs: nofree nounwind
declare noundef i32 @printf(i8* nocapture noundef readonly, ...) local_unnamed_addr #1

; Function Attrs: nofree nounwind
declare noundef i32 @getc(%struct._IO_FILE* nocapture noundef) local_unnamed_addr #1

; Function Attrs: nofree nounwind
declare noundef i32 @puts(i8* nocapture noundef readonly) local_unnamed_addr #4


!llvm.module.flags = !{!0, !1, !2, !3}
!llvm.ident = !{!4}

!0 = !{i32 1, !"wchar_size", i32 4}
!1 = !{i32 7, !"PIC Level", i32 2}
!2 = !{i32 7, !"PIE Level", i32 2}
!3 = !{i32 7, !"uwtable", i32 1}
!4 = !{!"clang version 13.0.0"}
!5 = !{!6, !6, i64 0}
!6 = !{!"any pointer", !7, i64 0}
!7 = !{!"omnipotent char", !8, i64 0}
!8 = !{!"Simple C/C++ TBAA"}
!9 = distinct !{!9, !10}
!10 = !{!"llvm.loop.mustprogress"}
!11 = distinct !{!11, !10}
